; Function Attrs: mustprogress nofree norecurse nosync nounwind willreturn memory(read, argmem: readwrite, inaccessiblemem: none) uwtable
define void @_ZN3gmx27AndersenTemperatureCouplingC2EdblNS_8ArrayRefIKfEES3_PNS_19StatePropagatorDataEPKNS_7MDAtomsEPK9t_commrec(ptr nocapture noundef nonnull writeonly align 8 dereferenceable(88) %0, double noundef %1, i1 noundef zeroext %2, i64 noundef %3, ptr %4, ptr %5, ptr nocapture noundef readonly byval(%"class.gmx::ArrayRef") align 8 %6, ptr noundef %7, ptr nocapture noundef readonly %8, ptr noundef %9) unnamed_addr #3 align 2 personality ptr @__gxx_personality_v0 {
  %11 = zext i1 %2 to i8
  store ptr getelementptr inbounds inrange(-16, 40) ({ [7 x ptr] }, ptr @_ZTVN3gmx27AndersenTemperatureCouplingE, i64 0, i32 0, i64 2), ptr %0, align 8
  %12 = getelementptr inbounds i8, ptr %0, i64 8
  store i8 %11, ptr %12, align 8
  %13 = getelementptr inbounds i8, ptr %0, i64 12
  %14 = load i64, ptr %6, align 8
  %15 = inttoptr i64 %14 to ptr
  %16 = load float, ptr %15, align 4
  %17 = fpext float %16 to double
  %18 = fdiv double %1, %17
  %19 = fptrunc double %18 to float
  store float %19, ptr %13, align 4
  %20 = getelementptr inbounds i8, ptr %0, i64 16
  %21 = fpext float %19 to double
  %22 = fdiv double 1.000000e+00, %21
  %23 = tail call double @llvm.rint.f64(double %22)
  %24 = fptosi double %23 to i32
  %25 = select i1 %2, i32 %24, i32 1
  store i32 %25, ptr %20, align 8
  %26 = getelementptr inbounds i8, ptr %0, i64 24
  store i64 %3, ptr %26, align 8
  %27 = getelementptr inbounds i8, ptr %0, i64 32
  store ptr %4, ptr %27, align 8
  %28 = getelementptr inbounds i8, ptr %0, i64 40
  %29 = ptrtoint ptr %5 to i64
  %30 = ptrtoint ptr %4 to i64
  %31 = sub i64 %29, %30
  %32 = getelementptr inbounds i8, ptr %4, i64 %31
  store ptr %32, ptr %28, align 8
  %33 = getelementptr inbounds i8, ptr %0, i64 48
  store ptr %15, ptr %33, align 8
  %34 = getelementptr inbounds i8, ptr %0, i64 56
  %35 = getelementptr inbounds i8, ptr %6, i64 8
  %36 = load ptr, ptr %35, align 8
  %37 = ptrtoint ptr %36 to i64
  %38 = sub i64 %37, %14
  %39 = getelementptr inbounds i8, ptr %15, i64 %38
  store ptr %39, ptr %34, align 8
  %40 = getelementptr inbounds i8, ptr %0, i64 64
  store ptr %7, ptr %40, align 8
  %41 = getelementptr inbounds i8, ptr %0, i64 72
  %42 = load ptr, ptr %8, align 8
  store ptr %42, ptr %41, align 8
  %43 = getelementptr inbounds i8, ptr %0, i64 80
  store ptr %9, ptr %43, align 8
  ret void
}